Certificate:
    Data:
        Version: 3 (0x2)
        Serial Number: 6 (0x6)
    Signature Algorithm: sha256WithRSAEncryption
        Issuer: C=CN, ST=Beijing, O=Feihoo87, OU=CA, CN=Huikai Xu/emailAddress=xfh1987@gmail.com
        Validity
            Not Before: Apr 19 02:34:39 2018 GMT
            Not After : Apr 18 02:34:39 2020 GMT
        Subject: C=CN, ST=Jiangsu, O=NJU, OU=SQDLAB, CN=Qubit_PC
        Subject Public Key Info:
            Public Key Algorithm: rsaEncryption
                Public-Key: (2048 bit)
                Modulus:
                    00:ce:4a:d3:7b:4f:ec:ad:5e:90:86:65:db:8e:c8:
                    f5:31:04:69:0c:eb:b7:25:13:09:dc:b1:12:c4:70:
                    68:cc:22:d8:b5:28:71:b4:e7:c2:8d:78:73:0b:6d:
                    2d:70:0a:ba:1d:94:81:5f:60:b3:7d:22:c0:73:4e:
                    93:96:2b:95:9f:71:8a:c9:5e:d2:bb:82:7e:8a:fc:
                    08:86:9f:f0:76:3c:35:a5:43:52:4f:d4:73:0e:d2:
                    f7:9e:61:f5:e6:b0:48:7f:6f:68:49:34:53:6d:2b:
                    f6:85:43:ec:8a:fb:0f:0b:b0:52:aa:00:54:0a:a3:
                    5f:fa:71:cb:7b:06:ed:89:c2:bc:e8:1c:2e:d7:3d:
                    5a:17:5d:a3:14:98:96:63:b2:aa:84:8c:94:8e:45:
                    fb:33:f2:46:21:88:b4:f1:46:64:68:fd:00:a8:e7:
                    0a:d7:d0:8e:7d:de:78:50:4f:e1:70:cb:95:40:62:
                    31:33:e7:b7:1e:a0:a2:f6:39:d6:d4:d2:b4:63:8d:
                    a1:64:44:11:e2:58:cd:4e:ac:06:1b:77:c2:86:c6:
                    28:e4:56:27:be:1c:34:6b:ce:69:c1:a0:24:bb:1b:
                    9f:31:4e:ac:d7:4d:d7:83:d1:dc:74:19:e8:5c:fc:
                    54:97:3d:05:0f:70:0b:bc:ea:72:0e:49:1d:31:bb:
                    0a:65
                Exponent: 65537 (0x10001)
        X509v3 extensions:
            X509v3 Basic Constraints: 
                CA:FALSE
            X509v3 Key Usage: 
                Digital Signature, Non Repudiation, Key Encipherment
            X509v3 Subject Alternative Name: 
                IP Address:127.0.0.1, IP Address:192.168.1.4, DNS:localhost, DNS:Qubit_PC
    Signature Algorithm: sha256WithRSAEncryption
         3c:3b:b5:9d:db:38:32:7a:cf:0e:5b:9e:34:dd:85:5b:32:8e:
         b9:8c:5a:f1:72:63:0d:bd:bf:e9:39:c3:3d:38:47:ec:90:f3:
         0b:16:45:fb:a4:42:40:c9:43:2e:98:c3:59:a2:1c:5c:67:b0:
         57:d9:8e:5c:01:5a:cb:3b:79:a3:22:d6:fc:53:59:50:02:e0:
         5b:d8:fe:22:f9:95:75:4e:10:53:4d:42:bb:09:39:ba:11:ee:
         7a:3f:bd:f1:2d:1e:d4:ac:96:9f:83:a7:60:37:97:8b:29:84:
         51:d6:f3:f4:be:a6:a6:f3:fa:48:a1:e7:ab:11:19:a7:6f:44:
         1b:1b:f5:69:23:a1:e6:6a:4e:8f:0f:77:a0:8f:78:8d:fc:30:
         13:a6:0a:77:ea:78:58:16:e5:a0:d1:fa:ff:a3:02:84:68:2b:
         e1:15:77:ac:fc:76:94:7e:ea:1a:54:88:90:0d:5b:53:90:a2:
         98:d5:ca:4f:0c:87:b9:24:e5:2d:a3:a9:57:4e:27:8b:fa:3e:
         5c:5c:37:c6:f3:49:19:24:28:38:fe:ed:e3:ad:55:12:0a:dd:
         8b:80:21:da:f9:b6:f2:a9:82:c6:74:26:46:2e:c5:ad:77:a5:
         5c:c6:38:e7:89:61:7a:07:1d:5f:cc:dc:7c:ec:e2:86:e4:c4:
         d7:a8:de:7d
-----BEGIN CERTIFICATE-----
MIIDhzCCAm+gAwIBAgIBBjANBgkqhkiG9w0BAQsFADB1MQswCQYDVQQGEwJDTjEQ
MA4GA1UECAwHQmVpamluZzERMA8GA1UECgwIRmVpaG9vODcxCzAJBgNVBAsMAkNB
MRIwEAYDVQQDDAlIdWlrYWkgWHUxIDAeBgkqhkiG9w0BCQEWEXhmaDE5ODdAZ21h
aWwuY29tMB4XDTE4MDQxOTAyMzQzOVoXDTIwMDQxODAyMzQzOVowUTELMAkGA1UE
BhMCQ04xEDAOBgNVBAgMB0ppYW5nc3UxDDAKBgNVBAoMA05KVTEPMA0GA1UECwwG
U1FETEFCMREwDwYDVQQDDAhRdWJpdF9QQzCCASIwDQYJKoZIhvcNAQEBBQADggEP
ADCCAQoCggEBAM5K03tP7K1ekIZl247I9TEEaQzrtyUTCdyxEsRwaMwi2LUocbTn
wo14cwttLXAKuh2UgV9gs30iwHNOk5YrlZ9xisle0ruCfor8CIaf8HY8NaVDUk/U
cw7S955h9eawSH9vaEk0U20r9oVD7Ir7DwuwUqoAVAqjX/pxy3sG7YnCvOgcLtc9
WhddoxSYlmOyqoSMlI5F+zPyRiGItPFGZGj9AKjnCtfQjn3eeFBP4XDLlUBiMTPn
tx6govY51tTStGONoWREEeJYzU6sBht3wobGKORWJ74cNGvOacGgJLsbnzFOrNdN
14PR3HQZ6Fz8VJc9BQ9wC7zqcg5JHTG7CmUCAwEAAaNGMEQwCQYDVR0TBAIwADAL
BgNVHQ8EBAMCBeAwKgYDVR0RBCMwIYcEfwAAAYcEwKgBBIIJbG9jYWxob3N0gghR
dWJpdF9QQzANBgkqhkiG9w0BAQsFAAOCAQEAPDu1nds4MnrPDlueNN2FWzKOuYxa
8XJjDb2/6TnDPThH7JDzCxZF+6RCQMlDLpjDWaIcXGewV9mOXAFayzt5oyLW/FNZ
UALgW9j+IvmVdU4QU01Cuwk5uhHuej+98S0e1KyWn4OnYDeXiymEUdbz9L6mpvP6
SKHnqxEZp29EGxv1aSOh5mpOjw93oI94jfwwE6YKd+p4WBbloNH6/6MChGgr4RV3
rPx2lH7qGlSIkA1bU5CimNXKTwyHuSTlLaOpV04ni/o+XFw3xvNJGSQoOP7t461V
Egrdi4Ah2vm28qmCxnQmRi7FrXelXMY454lhegcdX8zcfOzihuTE16jefQ==
-----END CERTIFICATE-----
Certificate:
    Data:
        Version: 3 (0x2)
        Serial Number: 1 (0x1)
    Signature Algorithm: sha256WithRSAEncryption
        Issuer: C=CN, ST=Beijing, L=Beijing, O=Feihoo87, OU=rootCA, CN=Huikai Xu/emailAddress=me@feihoo87.com
        Validity
            Not Before: Nov  9 02:15:47 2017 GMT
            Not After : Nov  7 02:15:47 2027 GMT
        Subject: C=CN, ST=Beijing, O=Feihoo87, OU=CA, CN=Huikai Xu/emailAddress=xfh1987@gmail.com
        Subject Public Key Info:
            Public Key Algorithm: rsaEncryption
                Public-Key: (2048 bit)
                Modulus:
                    00:e7:28:1d:5c:4e:68:52:c9:ec:ac:d9:d4:65:30:
                    1d:c4:51:fe:10:db:5f:fd:94:17:54:c3:74:89:06:
                    e3:be:f8:89:69:dc:10:2b:90:8b:ec:54:70:88:02:
                    fe:85:59:84:13:f6:86:8c:f9:71:7d:80:01:2c:58:
                    e4:0e:16:a9:81:cc:bb:c7:f7:ca:87:34:ae:5a:24:
                    88:2f:18:71:9a:2f:30:43:c8:c2:64:68:ac:b7:3c:
                    a3:11:94:d8:6c:fd:21:9e:17:a9:dd:a8:06:24:3d:
                    53:f6:bc:4c:66:54:82:35:99:47:17:c8:3b:9e:1e:
                    f6:de:36:5c:5c:6f:66:d9:5c:37:1d:72:e1:be:ea:
                    12:57:3b:f0:a4:03:e7:8a:58:35:3a:42:75:f5:a3:
                    e6:fe:a5:a5:c1:e9:3d:7e:ff:98:41:84:0a:0a:0e:
                    85:33:56:11:5d:07:07:7b:fd:ed:7e:95:c3:d5:b1:
                    90:52:71:6b:4e:a6:de:be:67:2f:7e:12:da:d4:b3:
                    f1:db:6b:c0:d6:2e:08:57:5e:5e:7e:ed:0d:e2:5a:
                    79:ca:f5:a9:12:47:8b:6c:c4:33:8f:d4:c9:55:20:
                    5c:f1:7d:f2:df:2e:be:36:b1:0e:4c:2e:5d:db:3f:
                    ec:ce:ed:88:3c:24:95:2e:59:f2:05:9b:d8:2b:9d:
                    13:cf
                Exponent: 65537 (0x10001)
        X509v3 extensions:
            X509v3 Subject Key Identifier: 
                EC:3F:7D:C4:5D:4C:5F:B9:8B:7E:81:53:E4:8F:DE:BD:18:36:F9:98
            X509v3 Authority Key Identifier: 
                keyid:C1:3B:D2:BA:8E:36:89:F4:72:0D:3B:9B:85:8C:13:7B:B5:E2:5A:31

            X509v3 Basic Constraints: critical
                CA:TRUE
    Signature Algorithm: sha256WithRSAEncryption
         12:fb:91:55:85:f1:f6:2b:9c:56:ab:39:d2:93:80:4f:59:b6:
         dc:41:20:c7:af:ee:9a:0c:37:3e:24:89:8c:d1:9d:f9:60:84:
         57:95:98:01:b4:c4:6e:eb:41:7a:8a:aa:d4:5f:14:04:f2:bc:
         ff:40:71:5e:d1:68:b4:dd:84:c2:40:78:05:98:1a:61:1a:67:
         b1:36:a4:3b:c4:51:c0:d2:2c:8c:fc:76:3c:06:e0:72:a2:3d:
         b2:a0:94:5b:37:39:e9:07:3d:e5:47:7f:51:01:ef:e7:86:b9:
         7c:60:8f:0a:43:a7:64:a7:83:e2:90:35:cf:a3:63:22:7e:fd:
         cf:da:23:0d:d4:b9:07:59:49:e6:50:5f:52:8c:32:b9:c6:8a:
         87:1b:37:43:de:5d:fe:b5:2f:33:3a:d3:0a:ae:e4:69:54:a9:
         41:9a:a6:f8:19:9d:3c:ca:1e:d0:4b:5e:a5:36:dd:68:97:3d:
         a7:90:d1:a7:68:37:ff:0f:ff:01:88:26:c8:5e:4b:b7:cb:c0:
         77:99:9f:8a:b2:91:07:44:18:f1:4e:2d:b4:c8:ce:60:2e:91:
         0a:3d:07:eb:d7:54:e8:eb:69:16:40:5c:ae:63:59:6b:86:f3:
         8a:42:1f:a3:de:76:3c:71:c9:15:34:d6:df:fe:5a:eb:ab:de:
         ed:70:22:1d:dd:60:6f:96:ec:2d:93:aa:60:23:5c:30:b3:5e:
         b1:e2:11:9d:a2:22:75:e0:1f:de:cf:9a:69:39:83:5e:8c:30:
         2b:51:82:ac:78:cd:5e:e6:7b:ba:dc:95:63:10:34:e4:5d:3b:
         38:c4:5e:0a:45:b0:eb:d0:3a:26:3b:35:64:aa:5b:b4:6b:8f:
         2c:4c:b4:f0:5a:43:8a:49:00:99:db:82:05:29:5d:93:7e:40:
         e6:98:77:cf:9a:89:55:9b:b6:ec:60:16:91:a7:b2:8a:2d:58:
         ec:02:3a:d4:8f:f5:c7:28:06:e4:44:f5:5d:6f:2d:6d:79:c0:
         ae:02:31:33:b6:ba:89:79:49:30:2d:b6:9a:78:bc:02:24:c7:
         c8:0e:d8:8e:63:a8:81:42:08:5b:fc:22:b9:ac:72:dd:9f:12:
         25:22:15:dc:b7:71:a2:51:60:8f:8d:0e:4f:02:af:4f:76:73:
         cc:53:db:ef:c8:69:1b:ba:22:74:74:a4:82:2a:e4:a7:12:4f:
         81:86:89:fa:1a:42:8b:22:c2:04:37:c8:95:2f:7d:a7:e3:fd:
         1a:0d:29:9a:0f:4d:6f:00:88:63:50:38:d7:ed:49:fc:4f:50:
         33:40:16:f5:49:97:84:01:82:5a:1d:bd:9e:6e:43:c6:a3:7b:
         86:a8:52:39:5a:9f:86:79
-----BEGIN CERTIFICATE-----
MIIEzTCCArWgAwIBAgIBATANBgkqhkiG9w0BAQsFADCBiTELMAkGA1UEBhMCQ04x
EDAOBgNVBAgMB0JlaWppbmcxEDAOBgNVBAcMB0JlaWppbmcxETAPBgNVBAoMCEZl
aWhvbzg3MQ8wDQYDVQQLDAZyb290Q0ExEjAQBgNVBAMMCUh1aWthaSBYdTEeMBwG
CSqGSIb3DQEJARYPbWVAZmVpaG9vODcuY29tMB4XDTE3MTEwOTAyMTU0N1oXDTI3
MTEwNzAyMTU0N1owdTELMAkGA1UEBhMCQ04xEDAOBgNVBAgMB0JlaWppbmcxETAP
BgNVBAoMCEZlaWhvbzg3MQswCQYDVQQLDAJDQTESMBAGA1UEAwwJSHVpa2FpIFh1
MSAwHgYJKoZIhvcNAQkBFhF4ZmgxOTg3QGdtYWlsLmNvbTCCASIwDQYJKoZIhvcN
AQEBBQADggEPADCCAQoCggEBAOcoHVxOaFLJ7KzZ1GUwHcRR/hDbX/2UF1TDdIkG
4774iWncECuQi+xUcIgC/oVZhBP2hoz5cX2AASxY5A4WqYHMu8f3yoc0rlokiC8Y
cZovMEPIwmRorLc8oxGU2Gz9IZ4Xqd2oBiQ9U/a8TGZUgjWZRxfIO54e9t42XFxv
ZtlcNx1y4b7qElc78KQD54pYNTpCdfWj5v6lpcHpPX7/mEGECgoOhTNWEV0HB3v9
7X6Vw9WxkFJxa06m3r5nL34S2tSz8dtrwNYuCFdeXn7tDeJaecr1qRJHi2zEM4/U
yVUgXPF98t8uvjaxDkwuXds/7M7tiDwklS5Z8gWb2CudE88CAwEAAaNTMFEwHQYD
VR0OBBYEFOw/fcRdTF+5i36BU+SP3r0YNvmYMB8GA1UdIwQYMBaAFME70rqONon0
cg07m4WME3u14loxMA8GA1UdEwEB/wQFMAMBAf8wDQYJKoZIhvcNAQELBQADggIB
ABL7kVWF8fYrnFarOdKTgE9ZttxBIMev7poMNz4kiYzRnflghFeVmAG0xG7rQXqK
qtRfFATyvP9AcV7RaLTdhMJAeAWYGmEaZ7E2pDvEUcDSLIz8djwG4HKiPbKglFs3
OekHPeVHf1EB7+eGuXxgjwpDp2Sng+KQNc+jYyJ+/c/aIw3UuQdZSeZQX1KMMrnG
iocbN0PeXf61LzM60wqu5GlUqUGapvgZnTzKHtBLXqU23WiXPaeQ0adoN/8P/wGI
JsheS7fLwHeZn4qykQdEGPFOLbTIzmAukQo9B+vXVOjraRZAXK5jWWuG84pCH6Pe
djxxyRU01t/+Wuur3u1wIh3dYG+W7C2TqmAjXDCzXrHiEZ2iInXgH97Pmmk5g16M
MCtRgqx4zV7me7rclWMQNORdOzjEXgpFsOvQOiY7NWSqW7RrjyxMtPBaQ4pJAJnb
ggUpXZN+QOaYd8+aiVWbtuxgFpGnsootWOwCOtSP9ccoBuRE9V1vLW15wK4CMTO2
uol5STAttpp4vAIkx8gO2I5jqIFCCFv8Irmsct2fEiUiFdy3caJRYI+NDk8Cr092
c8xT2+/IaRu6InR0pIIq5KcST4GGifoaQosiwgQ3yJUvfafj/RoNKZoPTW8AiGNQ
ONftSfxPUDNAFvVJl4QBglodvZ5uQ8aje4aoUjlan4Z5
-----END CERTIFICATE-----
-----BEGIN CERTIFICATE-----
MIIF7DCCA9SgAwIBAgIJAPlpeg8SGRYpMA0GCSqGSIb3DQEBCwUAMIGJMQswCQYD
VQQGEwJDTjEQMA4GA1UECAwHQmVpamluZzEQMA4GA1UEBwwHQmVpamluZzERMA8G
A1UECgwIRmVpaG9vODcxDzANBgNVBAsMBnJvb3RDQTESMBAGA1UEAwwJSHVpa2Fp
IFh1MR4wHAYJKoZIhvcNAQkBFg9tZUBmZWlob284Ny5jb20wIBcNMTcxMTA5MDIw
NDA2WhgPMjA2NzEwMjgwMjA0MDZaMIGJMQswCQYDVQQGEwJDTjEQMA4GA1UECAwH
QmVpamluZzEQMA4GA1UEBwwHQmVpamluZzERMA8GA1UECgwIRmVpaG9vODcxDzAN
BgNVBAsMBnJvb3RDQTESMBAGA1UEAwwJSHVpa2FpIFh1MR4wHAYJKoZIhvcNAQkB
Fg9tZUBmZWlob284Ny5jb20wggIiMA0GCSqGSIb3DQEBAQUAA4ICDwAwggIKAoIC
AQDQ444xNP+Ri0+qa9UggJrlkqzRqcvRZqBgB4XMrxI6tGOLmA+Mfm/WMH3gTnsJ
OCl3LyNbj3JHpvFudZjwvrGci5CnxH72/BXJdV7RoTTr78lubNB7VYNM7uE2QzFG
CCX9WMY1EwV06kdJ4b4tbTpUTePP1ymm7FX9bD79fsXsxWsFQneaYi8FBNi5oP92
UHEcEtey/PykS0L9/ickD+NIAc2BzeX4Vi4bHOgbNpCq76Dx3vnxRdGMhi67ymmA
6Z82XuEWDsVSEphW8ylKhqu23Hm8aoHxnqb2Hlbc76yB7YGvwdAKacm0rQ80uE3S
jZ6iQ9Dv+PVD7x6G+MyNu33vJ1PAlaPojTYaY115dIEzbR0+I9h7seZGONlAPbPJ
H1tm9xhx/7d+Ba4t91R0g1cQVX7SNfLsRMPVFba2KMaQ9e562eMWm4oYlbvhZOCX
fKdldi1vT7wdJpFQD1r5Eo9GoFB6C2+Rw+2CMvM5dvuOMQNsQvst0aK0LKSMN23H
RZt2wg8rU6T11J5CgghcuK0kyg98OPwMFYDA5s7tbfrD0NCqz/ZVroPBvuIYkw6T
oabPW3l9tlFgxrXP1c0jGMB1HNAOGYUkAc6AtkafumN4oTjZAgt4csT5lgb3oCfi
BQHStAvAqm4ZYZCag5Jm6bMQOhTSD64y+Rxv8WmSycGo9QIDAQABo1MwUTAdBgNV
HQ4EFgQUwTvSuo42ifRyDTubhYwTe7XiWjEwHwYDVR0jBBgwFoAUwTvSuo42ifRy
DTubhYwTe7XiWjEwDwYDVR0TAQH/BAUwAwEB/zANBgkqhkiG9w0BAQsFAAOCAgEA
OHQ0DZjCGqzT8EJl4lpKCjefVWjHJ91ys6m0RBqxyi3dsCyef7ph6C32mo57N4kh
W4ZPe1rBj5aRjqE1NxLsg+k36sraXPncNeVxgMz5gvjHnLEeJWv/6iMezpeC6Spk
WpEdmf5xfPPj9OwxO0NjaIDhfcpD41YQcULNWrPUaeLinlCK2RzrlC8eDQcuG31h
JG+xH3sZE6Pheq8CxNH+MQ+0UcnZ0UuELgxwqaqeNQeRk10te8I1FToNHXqpNn8r
d7QFfrVOV4e7UgBqGl6+CSWX2k6nsKzFo9rKFRcgAiCm+3gRy2oC1Fq4T+vVDcVe
Y8SbP3zEKjdInJ7kI8N6bivfMc8kGRA4a+cjUYUjUbjTOVRwN03UfgfflYCmU3Xc
wzA/btlRcR0/394BpjCfOA5FlCC7g6etjkd1UoddE5hOeNOGTj0UgZkfA2A1Hit1
FjM5sIc76TzUpDz83w73SfmBVdkfY39ebPSSBqZkFiN4RKodu57vDu9pn6d9F0Sy
ODGMo07zxVWsdQRmd3GPH6ngzj+J7xfxN5IruDertFYqdo8gFinydbS8bOlAcehg
8qKj/gdomZNr1tCknKhid1QTw+qH9LE1EtRNmCRXSUAMPJF79uSALlTbTP1N4VHs
HZE1kt5CThKwuWF99l2ULT3VltIxbDqCo2R0yG8ym0Y=
-----END CERTIFICATE-----
